target datalayout = "e-m:e-p270:32:32-p271:32:32-p272:64:64-i64:64-i128:128-f80:128-n8:16:32:64-S128"
target triple = "x86_64-pc-linux-gnu"

%class.XMMRegister = type { i32 }
%class.MachNode = type { %class.Node.base, i8, i16, ptr }
%class.Node.base = type <{ ptr, ptr, ptr, i32, i32, i32, i32, i32, i32, i32 }>
%class.MachTypeNode = type { %class.MachNode, ptr }
%class.vaddSNode = type { %class.MachTypeNode, [3 x ptr] }

@_ZL6xnoreg = internal constant %class.XMMRegister { i32 -1 }, align 4

; Function Attrs: mustprogress nounwind uwtable
define linkonce_odr hidden void @_ZN11XMMRegisterC2Eib(ptr noundef nonnull align 4 dereferenceable(4) %0, i32 noundef %1, i1 noundef zeroext %2) unnamed_addr #1 comdat align 2 {
  %4 = alloca ptr, align 8
  %5 = alloca i32, align 4
  %6 = alloca i8, align 1
  store ptr %0, ptr %4, align 8
  store i32 %1, ptr %5, align 4
  %7 = zext i1 %2 to i8
  store i8 %7, ptr %6, align 1
  %8 = load ptr, ptr %4, align 8
  %9 = getelementptr inbounds %class.XMMRegister, ptr %8, i32 0, i32 0
  %10 = load i32, ptr %5, align 4
  store i32 %10, ptr %9, align 4
  ret void
}

; Function Attrs: mustprogress nounwind uwtable
define linkonce_odr hidden i32 @_Z14as_XMMRegisteri(i32 noundef %0) #1 comdat {
  %2 = alloca %class.XMMRegister, align 4
  %3 = alloca i32, align 4
  store i32 %0, ptr %3, align 4
  %4 = load i32, ptr %3, align 4
  %5 = icmp sle i32 0, %4
  br i1 %5, label %6, label %11

6:                                                ; preds = %1
  %7 = load i32, ptr %3, align 4
  %8 = icmp slt i32 %7, 32
  br i1 %8, label %9, label %11

9:                                                ; preds = %6
  %10 = load i32, ptr %3, align 4
  call void @_ZN11XMMRegisterC2Eib(ptr noundef nonnull align 4 dereferenceable(4) %2, i32 noundef %10, i1 noundef zeroext false)
  br label %12

11:                                               ; preds = %6, %1
  call void @llvm.memcpy.p0.p0.i64(ptr align 4 %2, ptr align 4 @_ZL6xnoreg, i64 4, i1 false)
  br label %12

12:                                               ; preds = %11, %9
  %13 = getelementptr inbounds %class.XMMRegister, ptr %2, i32 0, i32 0
  %14 = load i32, ptr %13, align 4
  ret i32 %14
}

; Function Attrs: mustprogress nounwind uwtable
define linkonce_odr hidden i32 @_ZNK8MachOper14as_XMMRegisterEP13PhaseRegAllocPK4Nodei(ptr noundef nonnull align 8 dereferenceable(8) %0, ptr noundef %1, ptr noundef %2, i32 noundef %3) #1 comdat align 2 {
  %5 = alloca %class.XMMRegister, align 4
  %6 = alloca ptr, align 8
  %7 = alloca ptr, align 8
  %8 = alloca ptr, align 8
  %9 = alloca i32, align 4
  store ptr %0, ptr %6, align 8
  store ptr %1, ptr %7, align 8
  store ptr %2, ptr %8, align 8
  store i32 %3, ptr %9, align 4
  %10 = load ptr, ptr %6, align 8
  %11 = load ptr, ptr %7, align 8
  %12 = load ptr, ptr %8, align 8
  %13 = load i32, ptr %9, align 4
  %14 = load ptr, ptr %10, align 8
  %15 = getelementptr inbounds ptr, ptr %14, i64 5
  %16 = load ptr, ptr %15, align 8
  %17 = call noundef i32 %16(ptr noundef nonnull align 8 dereferenceable(8) %10, ptr noundef %11, ptr noundef %12, i32 noundef %13)
  %18 = call i32 @_Z14as_XMMRegisteri(i32 noundef %17)
  %19 = getelementptr inbounds %class.XMMRegister, ptr %5, i32 0, i32 0
  store i32 %18, ptr %19, align 4
  %20 = getelementptr inbounds %class.XMMRegister, ptr %5, i32 0, i32 0
  %21 = load i32, ptr %20, align 4
  ret i32 %21
}

; Function Attrs: mustprogress nounwind uwtable
define linkonce_odr hidden noundef ptr @_ZNK9vaddSNode10opnd_arrayEj(ptr noundef nonnull align 8 dereferenceable(96) %0, i32 noundef %1) #1 comdat align 2 {
  %3 = alloca ptr, align 8
  %4 = alloca i32, align 4
  store ptr %0, ptr %3, align 8
  store i32 %1, ptr %4, align 4
  %5 = load ptr, ptr %3, align 8
  %6 = getelementptr inbounds %class.vaddSNode, ptr %5, i32 0, i32 1
  %7 = load i32, ptr %4, align 4
  %8 = zext i32 %7 to i64
  %9 = getelementptr inbounds [3 x ptr], ptr %6, i64 0, i64 %8
  %10 = load ptr, ptr %9, align 8
  ret ptr %10
}

; Function Attrs: mustprogress nounwind uwtable
define hidden void @_ZNK9vaddSNode4emitEP17C2_MacroAssemblerP13PhaseRegAlloc(ptr noundef nonnull align 8 dereferenceable(96) %0, ptr noundef %1, ptr noundef %2) unnamed_addr #1 align 2 {
  %4 = alloca ptr, align 8
  %5 = alloca ptr, align 8
  %6 = alloca ptr, align 8
  %7 = alloca i32, align 4
  %8 = alloca i32, align 4
  %9 = alloca i32, align 4
  %10 = alloca %class.XMMRegister, align 4
  %11 = alloca %class.XMMRegister, align 4
  store ptr %0, ptr %4, align 8
  store ptr %1, ptr %5, align 8
  store ptr %2, ptr %6, align 8
  %12 = load ptr, ptr %4, align 8
  store i32 1, ptr %7, align 4
  store i32 1, ptr %8, align 4
  %13 = load i32, ptr %8, align 4
  %14 = call noundef ptr @_ZNK9vaddSNode10opnd_arrayEj(ptr noundef nonnull align 8 dereferenceable(96) %12, i32 noundef 1)
  %15 = load ptr, ptr %14, align 8
  %16 = getelementptr inbounds ptr, ptr %15, i64 1
  %17 = load ptr, ptr %16, align 8
  %18 = call noundef i32 %17(ptr noundef nonnull align 8 dereferenceable(8) %14)
  %19 = add i32 %13, %18
  store i32 %19, ptr %9, align 4
  %20 = load ptr, ptr %5, align 8
  %21 = call noundef ptr @_ZNK9vaddSNode10opnd_arrayEj(ptr noundef nonnull align 8 dereferenceable(96) %12, i32 noundef 1)
  %22 = load ptr, ptr %6, align 8
  %23 = load i32, ptr %8, align 4
  %24 = call i32 @_ZNK8MachOper14as_XMMRegisterEP13PhaseRegAllocPK4Nodei(ptr noundef nonnull align 8 dereferenceable(8) %21, ptr noundef %22, ptr noundef %12, i32 noundef %23)
  %25 = getelementptr inbounds %class.XMMRegister, ptr %10, i32 0, i32 0
  store i32 %24, ptr %25, align 4
  %26 = call noundef ptr @_ZNK9vaddSNode10opnd_arrayEj(ptr noundef nonnull align 8 dereferenceable(96) %12, i32 noundef 2)
  %27 = load ptr, ptr %6, align 8
  %28 = load i32, ptr %9, align 4
  %29 = call i32 @_ZNK8MachOper14as_XMMRegisterEP13PhaseRegAllocPK4Nodei(ptr noundef nonnull align 8 dereferenceable(8) %26, ptr noundef %27, ptr noundef %12, i32 noundef %28)
  %30 = getelementptr inbounds %class.XMMRegister, ptr %11, i32 0, i32 0
  store i32 %29, ptr %30, align 4
  %31 = getelementptr inbounds %class.XMMRegister, ptr %10, i32 0, i32 0
  %32 = load i32, ptr %31, align 4
  %33 = getelementptr inbounds %class.XMMRegister, ptr %11, i32 0, i32 0
  %34 = load i32, ptr %33, align 4
  call void @_ZN9Assembler5paddwE11XMMRegisterS0_(ptr noundef nonnull align 8 dereferenceable(40) %20, i32 %32, i32 %34)
  ret void
}