; Function Attrs: mustprogress nounwind uwtable
define hidden void @_ZNK9vaddSNode4emitEP17C2_MacroAssemblerP13PhaseRegAlloc(ptr noundef nonnull align 8 dereferenceable(96) %0, ptr noundef %1, ptr noundef %2) unnamed_addr #3 align 2 {
  %4 = getelementptr inbounds i8, ptr %0, i64 80
  %5 = load ptr, ptr %4, align 8
  %6 = load ptr, ptr %5, align 8
  %7 = getelementptr inbounds i8, ptr %6, i64 8
  %8 = load ptr, ptr %7, align 8
  %9 = tail call noundef i32 %8(ptr noundef nonnull align 8 dereferenceable(8) %5) #23
  %10 = add i32 %9, 1
  %11 = load ptr, ptr %4, align 8
  %12 = load ptr, ptr %11, align 8
  %13 = getelementptr inbounds i8, ptr %12, i64 40
  %14 = load ptr, ptr %13, align 8
  %15 = tail call noundef i32 %14(ptr noundef nonnull align 8 dereferenceable(8) %11, ptr noundef %2, ptr noundef nonnull %0, i32 noundef 1) #23
  %or.cond.i.i = icmp ult i32 %15, 32
  %spec.select.i.i = select i1 %or.cond.i.i, i32 %15, i32 -1
  %16 = getelementptr inbounds i8, ptr %0, i64 88
  %17 = load ptr, ptr %16, align 8
  %18 = load ptr, ptr %17, align 8
  %19 = getelementptr inbounds i8, ptr %18, i64 40
  %20 = load ptr, ptr %19, align 8
  %21 = tail call noundef i32 %20(ptr noundef nonnull align 8 dereferenceable(8) %17, ptr noundef %2, ptr noundef nonnull %0, i32 noundef %10) #23
  %or.cond.i.i7 = icmp ult i32 %21, 32
  %spec.select.i.i8 = select i1 %or.cond.i.i7, i32 %21, i32 -1
  tail call void @_ZN9Assembler5paddwE11XMMRegisterS0_(ptr noundef nonnull align 8 dereferenceable(40) %1, i32 %spec.select.i.i, i32 %spec.select.i.i8) #23
  ret void
}